target datalayout = "e-m:e-p270:32:32-p271:32:32-p272:64:64-i64:64-i128:128-f80:128-n8:16:32:64-S128"
target triple = "x86_64-unknown-linux-gnu"

; Function Attrs: mustprogress uwtable
define void @_ZN7rocksdb6DBImpl28ReturnAndCleanupSuperVersionEPNS_16ColumnFamilyDataEPNS_12SuperVersionE(ptr noundef nonnull align 64 dereferenceable(6660) %this, ptr noundef %cfd, ptr noundef %sv) #0 align 2 {
entry:
  %this.addr = alloca ptr, align 8
  %cfd.addr = alloca ptr, align 8
  %sv.addr = alloca ptr, align 8
  store ptr %this, ptr %this.addr, align 8
  store ptr %cfd, ptr %cfd.addr, align 8
  store ptr %sv, ptr %sv.addr, align 8
  %this1 = load ptr, ptr %this.addr, align 8
  %0 = load ptr, ptr %cfd.addr, align 8
  %1 = load ptr, ptr %sv.addr, align 8
  %call = call noundef zeroext i1 @_ZN7rocksdb16ColumnFamilyData29ReturnThreadLocalSuperVersionEPNS_12SuperVersionE(ptr noundef nonnull align 8 dereferenceable(2656) %0, ptr noundef %1)
  br i1 %call, label %if.end, label %if.then

if.then:                                          ; preds = %entry
  %2 = load ptr, ptr %sv.addr, align 8
  call void @_ZN7rocksdb6DBImpl19CleanupSuperVersionEPNS_12SuperVersionE(ptr noundef nonnull align 64 dereferenceable(6660) %this1, ptr noundef %2)
  br label %if.end

if.end:                                           ; preds = %if.then, %entry
  ret void
}