; Function Attrs: mustprogress uwtable
define void @_ZN7rocksdb6DBImpl28ReturnAndCleanupSuperVersionEPNS_16ColumnFamilyDataEPNS_12SuperVersionE(ptr noundef nonnull align 64 dereferenceable(6660) %this, ptr noundef nonnull %cfd, ptr noundef %sv) local_unnamed_addr #5 align 2 {
entry:
  %call = tail call noundef zeroext i1 @_ZN7rocksdb16ColumnFamilyData29ReturnThreadLocalSuperVersionEPNS_12SuperVersionE(ptr noundef nonnull align 8 dereferenceable(2656) %cfd, ptr noundef %sv)
  br i1 %call, label %if.end, label %if.then

if.then:                                          ; preds = %entry
  tail call void @_ZN7rocksdb6DBImpl19CleanupSuperVersionEPNS_12SuperVersionE(ptr noundef nonnull align 64 dereferenceable(6660) %this, ptr noundef %sv)
  br label %if.end

if.end:                                           ; preds = %if.then, %entry
  ret void
}